target datalayout = "e-m:e-p270:32:32-p271:32:32-p272:64:64-i64:64-i128:128-f80:128-n8:16:32:64-S128"
target triple = "x86_64-pc-linux-gnu"

%struct.lexbor_str_t = type { ptr, i64 }

; Function Attrs: nounwind uwtable
define internal i64 @lexbor_mraw_data_size(ptr noundef %0) #0 {
  %2 = alloca ptr, align 8
  store ptr %0, ptr %2, align 8
  %3 = load ptr, ptr %2, align 8
  %4 = getelementptr inbounds i8, ptr %3, i64 -8
  %5 = load i64, ptr %4, align 8
  ret i64 %5
}

; Function Attrs: nounwind uwtable
define internal i64 @lexbor_str_size(ptr noundef %0) #0 {
  %2 = alloca ptr, align 8
  store ptr %0, ptr %2, align 8
  %3 = load ptr, ptr %2, align 8
  %4 = getelementptr inbounds %struct.lexbor_str_t, ptr %3, i32 0, i32 0
  %5 = load ptr, ptr %4, align 8
  %6 = call i64 @lexbor_mraw_data_size(ptr noundef %5)
  ret i64 %6
}

; Function Attrs: nounwind uwtable
define hidden ptr @lexbor_str_append_lowercase(ptr noundef %0, ptr noundef %1, ptr noundef %2, i64 noundef %3) #0 {
  %5 = alloca ptr, align 8
  %6 = alloca ptr, align 8
  %7 = alloca ptr, align 8
  %8 = alloca ptr, align 8
  %9 = alloca i64, align 8
  %10 = alloca i64, align 8
  %11 = alloca ptr, align 8
  %12 = alloca ptr, align 8
  store ptr %0, ptr %6, align 8
  store ptr %1, ptr %7, align 8
  store ptr %2, ptr %8, align 8
  store i64 %3, ptr %9, align 8
  br label %13

13:                                               ; preds = %4
  %14 = load ptr, ptr %6, align 8
  %15 = getelementptr inbounds %struct.lexbor_str_t, ptr %14, i32 0, i32 1
  %16 = load i64, ptr %15, align 8
  %17 = load i64, ptr %9, align 8
  %18 = add i64 %17, 1
  %19 = sub i64 -1, %18
  %20 = icmp ugt i64 %16, %19
  br i1 %20, label %21, label %22

21:                                               ; preds = %13
  store ptr null, ptr %5, align 8
  br label %88

22:                                               ; preds = %13
  %23 = load ptr, ptr %6, align 8
  %24 = getelementptr inbounds %struct.lexbor_str_t, ptr %23, i32 0, i32 1
  %25 = load i64, ptr %24, align 8
  %26 = load i64, ptr %9, align 8
  %27 = add i64 %26, 1
  %28 = add i64 %25, %27
  %29 = load ptr, ptr %6, align 8
  %30 = call i64 @lexbor_str_size(ptr noundef %29)
  %31 = icmp ugt i64 %28, %30
  br i1 %31, label %32, label %51

32:                                               ; preds = %22
  %33 = load ptr, ptr %7, align 8
  %34 = load ptr, ptr %6, align 8
  %35 = getelementptr inbounds %struct.lexbor_str_t, ptr %34, i32 0, i32 0
  %36 = load ptr, ptr %35, align 8
  %37 = load ptr, ptr %6, align 8
  %38 = getelementptr inbounds %struct.lexbor_str_t, ptr %37, i32 0, i32 1
  %39 = load i64, ptr %38, align 8
  %40 = load i64, ptr %9, align 8
  %41 = add i64 %40, 1
  %42 = add i64 %39, %41
  %43 = call ptr @lexbor_mraw_realloc(ptr noundef %33, ptr noundef %36, i64 noundef %42)
  store ptr %43, ptr %12, align 8
  %44 = load ptr, ptr %12, align 8
  %45 = icmp eq ptr %44, null
  br i1 %45, label %46, label %47

46:                                               ; preds = %32
  store ptr null, ptr %5, align 8
  br label %88

47:                                               ; preds = %32
  %48 = load ptr, ptr %12, align 8
  %49 = load ptr, ptr %6, align 8
  %50 = getelementptr inbounds %struct.lexbor_str_t, ptr %49, i32 0, i32 0
  store ptr %48, ptr %50, align 8
  br label %51

51:                                               ; preds = %47, %22
  br label %52

52:                                               ; preds = %51
  %53 = load ptr, ptr %6, align 8
  %54 = getelementptr inbounds %struct.lexbor_str_t, ptr %53, i32 0, i32 0
  %55 = load ptr, ptr %54, align 8
  %56 = load ptr, ptr %6, align 8
  %57 = getelementptr inbounds %struct.lexbor_str_t, ptr %56, i32 0, i32 1
  %58 = load i64, ptr %57, align 8
  %59 = getelementptr inbounds i8, ptr %55, i64 %58
  store ptr %59, ptr %11, align 8
  store i64 0, ptr %10, align 8
  br label %60

60:                                               ; preds = %75, %52
  %61 = load i64, ptr %10, align 8
  %62 = load i64, ptr %9, align 8
  %63 = icmp ult i64 %61, %62
  br i1 %63, label %64, label %78

64:                                               ; preds = %60
  %65 = load ptr, ptr %8, align 8
  %66 = load i64, ptr %10, align 8
  %67 = getelementptr inbounds i8, ptr %65, i64 %66
  %68 = load i8, ptr %67, align 1
  %69 = zext i8 %68 to i64
  %70 = getelementptr inbounds [256 x i8], ptr @lexbor_str_res_map_lowercase, i64 0, i64 %69
  %71 = load i8, ptr %70, align 1
  %72 = load ptr, ptr %11, align 8
  %73 = load i64, ptr %10, align 8
  %74 = getelementptr inbounds i8, ptr %72, i64 %73
  store i8 %71, ptr %74, align 1
  br label %75

75:                                               ; preds = %64
  %76 = load i64, ptr %10, align 8
  %77 = add i64 %76, 1
  store i64 %77, ptr %10, align 8
  br label %60

78:                                               ; preds = %60
  %79 = load ptr, ptr %11, align 8
  %80 = load i64, ptr %10, align 8
  %81 = getelementptr inbounds i8, ptr %79, i64 %80
  store i8 0, ptr %81, align 1
  %82 = load i64, ptr %9, align 8
  %83 = load ptr, ptr %6, align 8
  %84 = getelementptr inbounds %struct.lexbor_str_t, ptr %83, i32 0, i32 1
  %85 = load i64, ptr %84, align 8
  %86 = add i64 %85, %82
  store i64 %86, ptr %84, align 8
  %87 = load ptr, ptr %11, align 8
  store ptr %87, ptr %5, align 8
  br label %88

88:                                               ; preds = %78, %46, %21
  %89 = load ptr, ptr %5, align 8
  ret ptr %89
}