; Function Attrs: nounwind uwtable
define hidden ptr @lexbor_str_append_lowercase(ptr nocapture noundef %0, ptr noundef %1, ptr nocapture noundef readonly %2, i64 noundef %3) local_unnamed_addr #0 {
  %5 = getelementptr inbounds i8, ptr %0, i64 8
  %6 = load i64, ptr %5, align 8
  %7 = sub i64 -2, %3
  %8 = icmp ugt i64 %6, %7
  br i1 %8, label %32, label %9

9:                                                ; preds = %4
  %10 = add i64 %3, 1
  %11 = add i64 %10, %6
  %.val = load ptr, ptr %0, align 8
  %12 = getelementptr i8, ptr %.val, i64 -8
  %.val.val = load i64, ptr %12, align 8
  %13 = icmp ugt i64 %11, %.val.val
  br i1 %13, label %14, label %18

14:                                               ; preds = %9
  %15 = tail call ptr @lexbor_mraw_realloc(ptr noundef %1, ptr noundef nonnull %.val, i64 noundef %11) #15
  %16 = icmp eq ptr %15, null
  br i1 %16, label %32, label %17

17:                                               ; preds = %14
  store ptr %15, ptr %0, align 8
  %.pre = load i64, ptr %5, align 8
  br label %18

18:                                               ; preds = %9, %17
  %19 = phi i64 [ %6, %9 ], [ %.pre, %17 ]
  %20 = phi ptr [ %.val, %9 ], [ %15, %17 ]
  %21 = getelementptr inbounds i8, ptr %20, i64 %19
  %.not = icmp eq i64 %3, 0
  br i1 %.not, label %._crit_edge, label %.lr.ph

.lr.ph:                                           ; preds = %18, %.lr.ph
  %.02630 = phi i64 [ %28, %.lr.ph ], [ 0, %18 ]
  %22 = getelementptr inbounds i8, ptr %2, i64 %.02630
  %23 = load i8, ptr %22, align 1
  %24 = zext i8 %23 to i64
  %25 = getelementptr inbounds [256 x i8], ptr @lexbor_str_res_map_lowercase, i64 0, i64 %24
  %26 = load i8, ptr %25, align 1
  %27 = getelementptr inbounds i8, ptr %21, i64 %.02630
  store i8 %26, ptr %27, align 1
  %28 = add nuw i64 %.02630, 1
  %exitcond.not = icmp eq i64 %28, %3
  br i1 %exitcond.not, label %._crit_edge, label %.lr.ph

._crit_edge:                                      ; preds = %.lr.ph, %18
  %29 = getelementptr inbounds i8, ptr %21, i64 %3
  store i8 0, ptr %29, align 1
  %30 = load i64, ptr %5, align 8
  %31 = add i64 %30, %3
  store i64 %31, ptr %5, align 8
  br label %32

32:                                               ; preds = %14, %4, %._crit_edge
  %.0 = phi ptr [ %21, %._crit_edge ], [ null, %4 ], [ null, %14 ]
  ret ptr %.0
}